target datalayout = "e-m:e-p270:32:32-p271:32:32-p272:64:64-i64:64-i128:128-f80:128-n8:16:32:64-S128"
target triple = "x86_64-pc-linux-gnu"

%struct._zend_array = type { %struct._zend_refcounted_h, %union.anon.4, i32, %union.anon.6, i32, i32, i32, i32, i64, ptr }
%struct._zend_refcounted_h = type { i32, %union.anon.3 }
%union.anon.3 = type { i32 }
%union.anon.4 = type { i32 }
%union.anon.6 = type { ptr }
%struct._zval_struct = type { %union._zend_value, %union.anon, %union.anon.2 }
%union._zend_value = type { i64 }
%union.anon = type { i32 }
%union.anon.2 = type { i32 }
%struct._Bucket = type { %struct._zval_struct, i64, ptr }
%struct.pdo_driver_t = type { ptr, i64, i64, ptr }
%struct.anon.0 = type { i8, i8, %union.anon.1 }
%union.anon.1 = type { i16 }

@pdo_driver_hash = hidden global %struct._zend_array zeroinitializer, align 8
@.str.7 = private unnamed_addr constant [1 x i8] zeroinitializer, align 1
@.str.8 = private unnamed_addr constant [12 x i8] c"PDO support\00", align 1
@.str.9 = private unnamed_addr constant [8 x i8] c"enabled\00", align 1
@.str.10 = private unnamed_addr constant [7 x i8] c"%s, %s\00", align 1
@.str.11 = private unnamed_addr constant [12 x i8] c"PDO drivers\00", align 1

; Function Attrs: alwaysinline nounwind uwtable
define internal zeroext i8 @zval_get_type(ptr noundef %0) #5 {
  %2 = alloca ptr, align 8
  store ptr %0, ptr %2, align 8, !tbaa !13
  %3 = load ptr, ptr %2, align 8, !tbaa !13
  %4 = getelementptr inbounds nuw %struct._zval_struct, ptr %3, i32 0, i32 1
  %5 = getelementptr inbounds nuw %struct.anon.0, ptr %4, i32 0, i32 0
  %6 = load i8, ptr %5, align 8, !tbaa !15
  ret i8 %6
}

; Function Attrs: nounwind uwtable
define hidden void @zm_info_pdo(ptr noundef %0) #0 {
  %2 = alloca ptr, align 8
  %3 = alloca ptr, align 8
  %4 = alloca ptr, align 8
  %5 = alloca ptr, align 8
  %6 = alloca ptr, align 8
  %7 = alloca ptr, align 8
  %8 = alloca ptr, align 8
  %9 = alloca ptr, align 8
  %10 = alloca i32, align 4
  store ptr %0, ptr %2, align 8, !tbaa !29
  call void @llvm.lifetime.start.p0(i64 8, ptr %3) #14
  store ptr null, ptr %3, align 8, !tbaa !31
  call void @llvm.lifetime.start.p0(i64 8, ptr %4) #14
  %11 = call noalias ptr @_estrdup(ptr noundef @.str.7)
  store ptr %11, ptr %4, align 8, !tbaa !31
  call void @llvm.lifetime.start.p0(i64 8, ptr %5) #14
  call void @php_info_print_table_start()
  call void (i32, ...) @php_info_print_table_row(i32 noundef 2, ptr noundef @.str.8, ptr noundef @.str.9)
  br label %12

12:                                               ; preds = %1
  call void @llvm.lifetime.start.p0(i64 8, ptr %6) #14
  store ptr @pdo_driver_hash, ptr %6, align 8, !tbaa !16
  call void @llvm.lifetime.start.p0(i64 8, ptr %7) #14
  %13 = load ptr, ptr %6, align 8, !tbaa !16
  %14 = getelementptr inbounds nuw %struct._zend_array, ptr %13, i32 0, i32 3
  %15 = load ptr, ptr %14, align 8, !tbaa !15
  %16 = getelementptr inbounds %struct._Bucket, ptr %15, i64 0
  store ptr %16, ptr %7, align 8, !tbaa !18
  call void @llvm.lifetime.start.p0(i64 8, ptr %8) #14
  %17 = load ptr, ptr %6, align 8, !tbaa !16
  %18 = getelementptr inbounds nuw %struct._zend_array, ptr %17, i32 0, i32 3
  %19 = load ptr, ptr %18, align 8, !tbaa !15
  %20 = load ptr, ptr %6, align 8, !tbaa !16
  %21 = getelementptr inbounds nuw %struct._zend_array, ptr %20, i32 0, i32 4
  %22 = load i32, ptr %21, align 8, !tbaa !20
  %23 = zext i32 %22 to i64
  %24 = getelementptr inbounds nuw %struct._Bucket, ptr %19, i64 %23
  store ptr %24, ptr %8, align 8, !tbaa !18
  %25 = load ptr, ptr %6, align 8, !tbaa !16
  %26 = getelementptr inbounds nuw %struct._zend_array, ptr %25, i32 0, i32 1
  %27 = load i32, ptr %26, align 8, !tbaa !15
  %28 = and i32 %27, 4
  %29 = icmp ne i32 %28, 0
  %30 = xor i1 %29, true
  call void @llvm.assume(i1 %30)
  br label %31

31:                                               ; preds = %63, %12
  %32 = load ptr, ptr %7, align 8, !tbaa !18
  %33 = load ptr, ptr %8, align 8, !tbaa !18
  %34 = icmp ne ptr %32, %33
  br i1 %34, label %35, label %66

35:                                               ; preds = %31
  call void @llvm.lifetime.start.p0(i64 8, ptr %9) #14
  %36 = load ptr, ptr %7, align 8, !tbaa !18
  %37 = getelementptr inbounds nuw %struct._Bucket, ptr %36, i32 0, i32 0
  store ptr %37, ptr %9, align 8, !tbaa !13
  %38 = load ptr, ptr %9, align 8, !tbaa !13
  %39 = call zeroext i8 @zval_get_type(ptr noundef %38)
  %40 = zext i8 %39 to i32
  %41 = icmp eq i32 %40, 0
  %42 = xor i1 %41, true
  %43 = xor i1 %42, true
  %44 = zext i1 %43 to i32
  %45 = sext i32 %44 to i64
  %46 = call i64 @llvm.expect.i64(i64 %45, i64 0)
  %47 = icmp ne i64 %46, 0
  br i1 %47, label %48, label %49

48:                                               ; preds = %35
  store i32 6, ptr %10, align 4
  br label %60

49:                                               ; preds = %35
  %50 = load ptr, ptr %9, align 8, !tbaa !13
  %51 = getelementptr inbounds nuw %struct._zval_struct, ptr %50, i32 0, i32 0
  %52 = load ptr, ptr %51, align 8, !tbaa !15
  store ptr %52, ptr %5, align 8, !tbaa !24
  %53 = load ptr, ptr %4, align 8, !tbaa !31
  %54 = load ptr, ptr %5, align 8, !tbaa !24
  %55 = getelementptr inbounds nuw %struct.pdo_driver_t, ptr %54, i32 0, i32 0
  %56 = load ptr, ptr %55, align 8, !tbaa !25
  %57 = call i64 (ptr, i64, ptr, ...) @zend_spprintf(ptr noundef %3, i64 noundef 0, ptr noundef @.str.10, ptr noundef %53, ptr noundef %56)
  %58 = load ptr, ptr %4, align 8, !tbaa !31
  call void @_efree(ptr noundef %58)
  %59 = load ptr, ptr %3, align 8, !tbaa !31
  store ptr %59, ptr %4, align 8, !tbaa !31
  store i32 0, ptr %10, align 4
  br label %60

60:                                               ; preds = %49, %48
  call void @llvm.lifetime.end.p0(i64 8, ptr %9) #14
  %61 = load i32, ptr %10, align 4
  switch i32 %61, label %84 [
    i32 0, label %62
    i32 6, label %63
  ]

62:                                               ; preds = %60
  br label %63

63:                                               ; preds = %62, %60
  %64 = load ptr, ptr %7, align 8, !tbaa !18
  %65 = getelementptr inbounds nuw %struct._Bucket, ptr %64, i32 1
  store ptr %65, ptr %7, align 8, !tbaa !18
  br label %31

66:                                               ; preds = %31
  call void @llvm.lifetime.end.p0(i64 8, ptr %8) #14
  call void @llvm.lifetime.end.p0(i64 8, ptr %7) #14
  call void @llvm.lifetime.end.p0(i64 8, ptr %6) #14
  br label %67

67:                                               ; preds = %66
  br label %68

68:                                               ; preds = %67
  %69 = load ptr, ptr %3, align 8, !tbaa !31
  %70 = icmp ne ptr %69, null
  br i1 %70, label %71, label %74

71:                                               ; preds = %68
  %72 = load ptr, ptr %3, align 8, !tbaa !31
  %73 = getelementptr inbounds i8, ptr %72, i64 2
  br label %75

74:                                               ; preds = %68
  br label %75

75:                                               ; preds = %74, %71
  %76 = phi ptr [ %73, %71 ], [ @.str.7, %74 ]
  call void (i32, ...) @php_info_print_table_row(i32 noundef 2, ptr noundef @.str.11, ptr noundef %76)
  %77 = load ptr, ptr %3, align 8, !tbaa !31
  %78 = icmp ne ptr %77, null
  br i1 %78, label %79, label %81

79:                                               ; preds = %75
  %80 = load ptr, ptr %3, align 8, !tbaa !31
  call void @_efree(ptr noundef %80)
  br label %83

81:                                               ; preds = %75
  %82 = load ptr, ptr %4, align 8, !tbaa !31
  call void @_efree(ptr noundef %82)
  br label %83

83:                                               ; preds = %81, %79
  call void @php_info_print_table_end()
  call void @llvm.lifetime.end.p0(i64 8, ptr %5) #14
  call void @llvm.lifetime.end.p0(i64 8, ptr %4) #14
  call void @llvm.lifetime.end.p0(i64 8, ptr %3) #14
  ret void

84:                                               ; preds = %60
  unreachable
}