; Function Attrs: nounwind uwtable
define hidden void @zm_info_pdo(ptr readnone captures(none) %0) #1 {
  %2 = alloca ptr, align 8
  call void @llvm.lifetime.start.p0(i64 8, ptr nonnull %2) #13
  store ptr null, ptr %2, align 8, !tbaa !49
  %3 = tail call noalias ptr @_estrdup(ptr noundef nonnull @.str.7) #13
  tail call void @php_info_print_table_start() #13
  tail call void (i32, ...) @php_info_print_table_row(i32 noundef 2, ptr noundef nonnull @.str.8, ptr noundef nonnull @.str.9) #13
  %4 = load ptr, ptr getelementptr inbounds nuw (i8, ptr @pdo_driver_hash, i64 16), align 8, !tbaa !11
  %5 = load i32, ptr getelementptr inbounds nuw (i8, ptr @pdo_driver_hash, i64 24), align 8, !tbaa !13
  %6 = zext i32 %5 to i64
  %7 = getelementptr inbounds nuw %struct._Bucket, ptr %4, i64 %6
  %8 = load i32, ptr getelementptr inbounds nuw (i8, ptr @pdo_driver_hash, i64 8), align 8, !tbaa !11
  %9 = and i32 %8, 4
  %.not = icmp eq i32 %9, 0
  tail call void @llvm.assume(i1 %.not)
  %.not1619 = icmp eq i32 %5, 0
  br i1 %.not1619, label %._crit_edge, label %.lr.ph

.lr.ph:                                           ; preds = %1, %19
  %10 = phi ptr [ %20, %19 ], [ null, %1 ]
  %.021 = phi ptr [ %.1, %19 ], [ %3, %1 ]
  %.01420 = phi ptr [ %21, %19 ], [ %4, %1 ]
  %11 = getelementptr inbounds nuw i8, ptr %.01420, i64 8
  %12 = load i8, ptr %11, align 8, !tbaa !11
  %13 = icmp eq i8 %12, 0
  br i1 %13, label %19, label %14, !prof !17

14:                                               ; preds = %.lr.ph
  %15 = load ptr, ptr %.01420, align 8, !tbaa !11
  %16 = load ptr, ptr %15, align 8, !tbaa !18
  %17 = call i64 (ptr, i64, ptr, ...) @zend_spprintf(ptr noundef nonnull %2, i64 noundef 0, ptr noundef nonnull @.str.10, ptr noundef %.021, ptr noundef %16) #13
  call void @_efree(ptr noundef %.021) #13
  %18 = load ptr, ptr %2, align 8, !tbaa !49
  br label %19

19:                                               ; preds = %.lr.ph, %14
  %20 = phi ptr [ %18, %14 ], [ %10, %.lr.ph ]
  %.1 = phi ptr [ %18, %14 ], [ %.021, %.lr.ph ]
  %21 = getelementptr inbounds nuw i8, ptr %.01420, i64 32
  %.not16 = icmp eq ptr %21, %7
  br i1 %.not16, label %._crit_edge, label %.lr.ph

._crit_edge:                                      ; preds = %19, %1
  %22 = phi ptr [ null, %1 ], [ %20, %19 ]
  %.0.lcssa = phi ptr [ %3, %1 ], [ %.1, %19 ]
  %.not17 = icmp eq ptr %22, null
  %23 = getelementptr inbounds nuw i8, ptr %22, i64 2
  %24 = select i1 %.not17, ptr @.str.7, ptr %23
  call void (i32, ...) @php_info_print_table_row(i32 noundef 2, ptr noundef nonnull @.str.11, ptr noundef nonnull %24) #13
  %25 = load ptr, ptr %2, align 8, !tbaa !49
  %.not18 = icmp eq ptr %25, null
  %.0.lcssa. = select i1 %.not18, ptr %.0.lcssa, ptr %25
  call void @_efree(ptr noundef %.0.lcssa.) #13
  call void @php_info_print_table_end() #13
  call void @llvm.lifetime.end.p0(i64 8, ptr nonnull %2) #13
  ret void
}